target datalayout = "e-m:e-p270:32:32-p271:32:32-p272:64:64-i64:64-i128:128-f80:128-n8:16:32:64-S128"
target triple = "x86_64-pc-linux-gnu"

%"class.icu_77::number::impl::DecimalQuantity" = type <{ %"class.icu_77::IFixedDecimal", i8, [3 x i8], i32, i32, i8, i8, [2 x i8], double, i32, i32, i32, i32, %union.anon, i8, i8, [6 x i8] }>
%"class.icu_77::IFixedDecimal" = type { ptr }
%union.anon = type { %struct.anon }
%struct.anon = type { ptr, i32 }

; Function Attrs: mustprogress nounwind uwtable
define void @_ZN6icu_776number4impl15DecimalQuantity11popFromLeftEi(ptr noundef nonnull align 8 dereferenceable(66) %0, i32 noundef %1) #0 align 2 {
  %3 = alloca ptr, align 8
  %4 = alloca i32, align 4
  %5 = alloca i32, align 4
  store ptr %0, ptr %3, align 8, !tbaa !25
  store i32 %1, ptr %4, align 4, !tbaa !14
  %6 = load ptr, ptr %3, align 8
  %7 = getelementptr inbounds nuw %"class.icu_77::number::impl::DecimalQuantity", ptr %6, i32 0, i32 14
  %8 = load i8, ptr %7, align 8, !tbaa !37, !range !40, !noundef !41
  %9 = trunc i8 %8 to i1
  br i1 %9, label %10, label %32

10:                                               ; preds = %2
  call void @llvm.lifetime.start.p0(i64 4, ptr %5) #14
  %11 = getelementptr inbounds nuw %"class.icu_77::number::impl::DecimalQuantity", ptr %6, i32 0, i32 4
  %12 = load i32, ptr %11, align 8, !tbaa !44
  %13 = sub nsw i32 %12, 1
  store i32 %13, ptr %5, align 4, !tbaa !14
  br label %14

14:                                               ; preds = %28, %10
  %15 = load i32, ptr %5, align 4, !tbaa !14
  %16 = getelementptr inbounds nuw %"class.icu_77::number::impl::DecimalQuantity", ptr %6, i32 0, i32 4
  %17 = load i32, ptr %16, align 8, !tbaa !44
  %18 = load i32, ptr %4, align 4, !tbaa !14
  %19 = sub nsw i32 %17, %18
  %20 = icmp sge i32 %15, %19
  br i1 %20, label %21, label %31

21:                                               ; preds = %14
  %22 = getelementptr inbounds nuw %"class.icu_77::number::impl::DecimalQuantity", ptr %6, i32 0, i32 13
  %23 = getelementptr inbounds nuw %struct.anon, ptr %22, i32 0, i32 0
  %24 = load ptr, ptr %23, align 8, !tbaa !42
  %25 = load i32, ptr %5, align 4, !tbaa !14
  %26 = sext i32 %25 to i64
  %27 = getelementptr inbounds i8, ptr %24, i64 %26
  store i8 0, ptr %27, align 1, !tbaa !42
  br label %28

28:                                               ; preds = %21
  %29 = load i32, ptr %5, align 4, !tbaa !14
  %30 = add nsw i32 %29, -1
  store i32 %30, ptr %5, align 4, !tbaa !14
  br label %14, !llvm.loop !48

31:                                               ; preds = %14
  call void @llvm.lifetime.end.p0(i64 4, ptr %5) #14
  br label %44

32:                                               ; preds = %2
  %33 = getelementptr inbounds nuw %"class.icu_77::number::impl::DecimalQuantity", ptr %6, i32 0, i32 4
  %34 = load i32, ptr %33, align 8, !tbaa !44
  %35 = load i32, ptr %4, align 4, !tbaa !14
  %36 = sub nsw i32 %34, %35
  %37 = mul nsw i32 %36, 4
  %38 = zext i32 %37 to i64
  %39 = shl i64 1, %38
  %40 = sub i64 %39, 1
  %41 = getelementptr inbounds nuw %"class.icu_77::number::impl::DecimalQuantity", ptr %6, i32 0, i32 13
  %42 = load i64, ptr %41, align 8, !tbaa !42
  %43 = and i64 %42, %40
  store i64 %43, ptr %41, align 8, !tbaa !42
  br label %44

44:                                               ; preds = %32, %31
  %45 = load i32, ptr %4, align 4, !tbaa !14
  %46 = getelementptr inbounds nuw %"class.icu_77::number::impl::DecimalQuantity", ptr %6, i32 0, i32 4
  %47 = load i32, ptr %46, align 8, !tbaa !44
  %48 = sub nsw i32 %47, %45
  store i32 %48, ptr %46, align 8, !tbaa !44
  ret void
}

; Function Attrs: mustprogress nounwind uwtable
define noundef i32 @_ZNK6icu_776number4impl15DecimalQuantity12getMagnitudeEv(ptr noundef nonnull align 8 dereferenceable(66) %0) #0 align 2 {
  %2 = alloca ptr, align 8
  store ptr %0, ptr %2, align 8, !tbaa !25
  %3 = load ptr, ptr %2, align 8
  %4 = getelementptr inbounds nuw %"class.icu_77::number::impl::DecimalQuantity", ptr %3, i32 0, i32 3
  %5 = load i32, ptr %4, align 4, !tbaa !43
  %6 = getelementptr inbounds nuw %"class.icu_77::number::impl::DecimalQuantity", ptr %3, i32 0, i32 4
  %7 = load i32, ptr %6, align 8, !tbaa !44
  %8 = add nsw i32 %5, %7
  %9 = sub nsw i32 %8, 1
  ret i32 %9
}

; Function Attrs: mustprogress uwtable
define void @_ZN6icu_776number4impl15DecimalQuantity12setBcdToZeroEv(ptr noundef nonnull align 8 dereferenceable(66) %0) #1 align 2 {
  %2 = alloca ptr, align 8
  store ptr %0, ptr %2, align 8, !tbaa !25
  %3 = load ptr, ptr %2, align 8
  %4 = getelementptr inbounds nuw %"class.icu_77::number::impl::DecimalQuantity", ptr %3, i32 0, i32 14
  %5 = load i8, ptr %4, align 8, !tbaa !37, !range !40, !noundef !41
  %6 = trunc i8 %5 to i1
  br i1 %6, label %7, label %14

7:                                                ; preds = %1
  %8 = getelementptr inbounds nuw %"class.icu_77::number::impl::DecimalQuantity", ptr %3, i32 0, i32 13
  %9 = getelementptr inbounds nuw %struct.anon, ptr %8, i32 0, i32 0
  %10 = load ptr, ptr %9, align 8, !tbaa !42
  call void @uprv_free_77(ptr noundef %10)
  %11 = getelementptr inbounds nuw %"class.icu_77::number::impl::DecimalQuantity", ptr %3, i32 0, i32 13
  %12 = getelementptr inbounds nuw %struct.anon, ptr %11, i32 0, i32 0
  store ptr null, ptr %12, align 8, !tbaa !42
  %13 = getelementptr inbounds nuw %"class.icu_77::number::impl::DecimalQuantity", ptr %3, i32 0, i32 14
  store i8 0, ptr %13, align 8, !tbaa !37
  br label %14

14:                                               ; preds = %7, %1
  %15 = getelementptr inbounds nuw %"class.icu_77::number::impl::DecimalQuantity", ptr %3, i32 0, i32 13
  store i64 0, ptr %15, align 8, !tbaa !42
  %16 = getelementptr inbounds nuw %"class.icu_77::number::impl::DecimalQuantity", ptr %3, i32 0, i32 3
  store i32 0, ptr %16, align 4, !tbaa !43
  %17 = getelementptr inbounds nuw %"class.icu_77::number::impl::DecimalQuantity", ptr %3, i32 0, i32 4
  store i32 0, ptr %17, align 8, !tbaa !44
  %18 = getelementptr inbounds nuw %"class.icu_77::number::impl::DecimalQuantity", ptr %3, i32 0, i32 6
  store i8 0, ptr %18, align 1, !tbaa !45
  %19 = getelementptr inbounds nuw %"class.icu_77::number::impl::DecimalQuantity", ptr %3, i32 0, i32 8
  store double 0.000000e+00, ptr %19, align 8, !tbaa !46
  %20 = getelementptr inbounds nuw %"class.icu_77::number::impl::DecimalQuantity", ptr %3, i32 0, i32 9
  store i32 0, ptr %20, align 8, !tbaa !47
  %21 = getelementptr inbounds nuw %"class.icu_77::number::impl::DecimalQuantity", ptr %3, i32 0, i32 12
  store i32 0, ptr %21, align 4, !tbaa !36
  ret void
}

; Function Attrs: mustprogress uwtable
define void @_ZN6icu_776number4impl15DecimalQuantity15applyMaxIntegerEi(ptr noundef nonnull align 8 dereferenceable(66) %0, i32 noundef %1) #1 align 2 {
  %3 = alloca ptr, align 8
  %4 = alloca i32, align 4
  %5 = alloca i32, align 4
  store ptr %0, ptr %3, align 8, !tbaa !25
  store i32 %1, ptr %4, align 4, !tbaa !14
  %6 = load ptr, ptr %3, align 8
  %7 = getelementptr inbounds nuw %"class.icu_77::number::impl::DecimalQuantity", ptr %6, i32 0, i32 4
  %8 = load i32, ptr %7, align 8, !tbaa !44
  %9 = icmp eq i32 %8, 0
  br i1 %9, label %10, label %11

10:                                               ; preds = %2
  br label %28

11:                                               ; preds = %2
  %12 = load i32, ptr %4, align 4, !tbaa !14
  %13 = getelementptr inbounds nuw %"class.icu_77::number::impl::DecimalQuantity", ptr %6, i32 0, i32 3
  %14 = load i32, ptr %13, align 4, !tbaa !43
  %15 = icmp sle i32 %12, %14
  br i1 %15, label %16, label %17

16:                                               ; preds = %11
  call void @_ZN6icu_776number4impl15DecimalQuantity12setBcdToZeroEv(ptr noundef nonnull align 8 dereferenceable(66) %6)
  br label %28

17:                                               ; preds = %11
  call void @llvm.lifetime.start.p0(i64 4, ptr %5) #14
  %18 = call noundef i32 @_ZNK6icu_776number4impl15DecimalQuantity12getMagnitudeEv(ptr noundef nonnull align 8 dereferenceable(66) %6)
  store i32 %18, ptr %5, align 4, !tbaa !14
  %19 = load i32, ptr %4, align 4, !tbaa !14
  %20 = load i32, ptr %5, align 4, !tbaa !14
  %21 = icmp sle i32 %19, %20
  br i1 %21, label %22, label %27

22:                                               ; preds = %17
  %23 = load i32, ptr %5, align 4, !tbaa !14
  %24 = load i32, ptr %4, align 4, !tbaa !14
  %25 = sub nsw i32 %23, %24
  %26 = add nsw i32 %25, 1
  call void @_ZN6icu_776number4impl15DecimalQuantity11popFromLeftEi(ptr noundef nonnull align 8 dereferenceable(66) %6, i32 noundef %26)
  call void @_ZN6icu_776number4impl15DecimalQuantity7compactEv(ptr noundef nonnull align 8 dereferenceable(66) %6)
  br label %27

27:                                               ; preds = %22, %17
  call void @llvm.lifetime.end.p0(i64 4, ptr %5) #14
  br label %28

28:                                               ; preds = %27, %16, %10
  ret void
}