; Function Attrs: mustprogress uwtable
define void @_ZN6icu_776number4impl15DecimalQuantity15applyMaxIntegerEi(ptr noundef nonnull align 8 captures(none) dereferenceable(66) %0, i32 noundef %1) local_unnamed_addr #1 align 2 {
  %3 = getelementptr inbounds nuw i8, ptr %0, i64 16
  %4 = load i32, ptr %3, align 8, !tbaa !28
  %5 = icmp eq i32 %4, 0
  br i1 %5, label %46, label %6

6:                                                ; preds = %2
  %7 = getelementptr inbounds nuw i8, ptr %0, i64 12
  %8 = load i32, ptr %7, align 4, !tbaa !27
  %.not = icmp sgt i32 %1, %8
  br i1 %.not, label %21, label %9

9:                                                ; preds = %6
  %10 = getelementptr inbounds nuw i8, ptr %0, i64 64
  %11 = load i8, ptr %10, align 8, !tbaa !22, !range !24, !noundef !25
  %12 = trunc nuw i8 %11 to i1
  br i1 %12, label %13, label %_ZN6icu_776number4impl15DecimalQuantity12setBcdToZeroEv.exit

13:                                               ; preds = %9
  %14 = getelementptr inbounds nuw i8, ptr %0, i64 48
  %15 = load ptr, ptr %14, align 8, !tbaa !26
  tail call void @uprv_free_77(ptr noundef %15)
  store i8 0, ptr %10, align 8, !tbaa !22
  br label %_ZN6icu_776number4impl15DecimalQuantity12setBcdToZeroEv.exit

_ZN6icu_776number4impl15DecimalQuantity12setBcdToZeroEv.exit: ; preds = %9, %13
  %16 = getelementptr inbounds nuw i8, ptr %0, i64 48
  store i64 0, ptr %16, align 8, !tbaa !26
  store i32 0, ptr %7, align 4, !tbaa !27
  store i32 0, ptr %3, align 8, !tbaa !28
  %17 = getelementptr inbounds nuw i8, ptr %0, i64 21
  store i8 0, ptr %17, align 1, !tbaa !29
  %18 = getelementptr inbounds nuw i8, ptr %0, i64 24
  store double 0.000000e+00, ptr %18, align 8, !tbaa !30
  %19 = getelementptr inbounds nuw i8, ptr %0, i64 32
  store i32 0, ptr %19, align 8, !tbaa !31
  %20 = getelementptr inbounds nuw i8, ptr %0, i64 44
  store i32 0, ptr %20, align 4, !tbaa !32
  br label %46

21:                                               ; preds = %6
  %22 = add i32 %4, -1
  %23 = add i32 %22, %8
  %.not6 = icmp sgt i32 %1, %23
  br i1 %.not6, label %46, label %24

24:                                               ; preds = %21
  %25 = sub nsw i32 %23, %1
  %26 = add nsw i32 %25, 1
  %27 = getelementptr inbounds nuw i8, ptr %0, i64 64
  %28 = load i8, ptr %27, align 8, !tbaa !22, !range !24, !noundef !25
  %29 = trunc nuw i8 %28 to i1
  br i1 %29, label %.lr.ph.i, label %38

.lr.ph.i:                                         ; preds = %24
  %30 = getelementptr inbounds nuw i8, ptr %0, i64 48
  %31 = sext i32 %4 to i64
  br label %32

32:                                               ; preds = %32, %.lr.ph.i
  %indvars.iv.i = phi i64 [ %31, %.lr.ph.i ], [ %indvars.iv.next.i, %32 ]
  %indvars.iv.next.i = add nsw i64 %indvars.iv.i, -1
  %33 = load ptr, ptr %30, align 8, !tbaa !26
  %34 = getelementptr inbounds i8, ptr %33, i64 %indvars.iv.next.i
  store i8 0, ptr %34, align 1, !tbaa !26
  %35 = load i32, ptr %3, align 8, !tbaa !28
  %36 = sub nsw i32 %35, %26
  %37 = sext i32 %36 to i64
  %.not.not.i = icmp sgt i64 %indvars.iv.next.i, %37
  br i1 %.not.not.i, label %32, label %_ZN6icu_776number4impl15DecimalQuantity11popFromLeftEi.exit, !llvm.loop !36

38:                                               ; preds = %24
  %39 = sub nsw i32 %4, %26
  %40 = shl nsw i32 %39, 2
  %41 = zext nneg i32 %40 to i64
  %notmask.i = shl nsw i64 -1, %41
  %42 = xor i64 %notmask.i, -1
  %43 = getelementptr inbounds nuw i8, ptr %0, i64 48
  %44 = load i64, ptr %43, align 8, !tbaa !26
  %45 = and i64 %44, %42
  store i64 %45, ptr %43, align 8, !tbaa !26
  br label %_ZN6icu_776number4impl15DecimalQuantity11popFromLeftEi.exit

_ZN6icu_776number4impl15DecimalQuantity11popFromLeftEi.exit: ; preds = %32, %38
  %.pre-phi.i = phi i32 [ %39, %38 ], [ %36, %32 ]
  store i32 %.pre-phi.i, ptr %3, align 8, !tbaa !28
  tail call void @_ZN6icu_776number4impl15DecimalQuantity7compactEv(ptr noundef nonnull align 8 dereferenceable(66) %0)
  br label %46

46:                                               ; preds = %21, %_ZN6icu_776number4impl15DecimalQuantity11popFromLeftEi.exit, %2, %_ZN6icu_776number4impl15DecimalQuantity12setBcdToZeroEv.exit
  ret void
}